target datalayout = "e-m:e-p270:32:32-p271:32:32-p272:64:64-i64:64-i128:128-f80:128-n8:16:32:64-S128"
target triple = "x86_64-pc-linux-gnu"

%struct.SResource = type { ptr, i8, i8, i32, i32, i32, i32, i32, ptr, %struct.UString }
%struct.UString = type { ptr, i32, i32 }
%struct.SRBRoot = type { ptr, ptr, i32, i32, i8, i8, i8, ptr, ptr, i32, i32, i32, i32, i32, %"class.icu_77::UnicodeString", i32, ptr, i32, i32, i32, ptr }
%"class.icu_77::UnicodeString" = type { %"class.icu_77::Replaceable", %"union.icu_77::UnicodeString::StackBufferOrFields" }
%"class.icu_77::Replaceable" = type { %"class.icu_77::UObject" }
%"class.icu_77::UObject" = type { ptr }
%"union.icu_77::UnicodeString::StackBufferOrFields" = type { %struct.anon.0, [32 x i8] }
%struct.anon.0 = type { i16, i32, i32, ptr }
%class.StringBaseResource = type { %struct.SResource, %"class.icu_77::UnicodeString" }
%struct.anon = type { i16, [27 x i16] }
%class.StringResource = type <{ %class.StringBaseResource, ptr, i32, i32, i32, i8, [3 x i8] }>

; Function Attrs: inlinehint mustprogress nounwind uwtable
define linkonce_odr dso_local noundef ptr @_ZNK6icu_7713UnicodeString13getArrayStartEv(ptr noundef nonnull align 8 dereferenceable(64) %0) #9 comdat align 2 {
  %2 = alloca ptr, align 8
  store ptr %0, ptr %2, align 8, !tbaa !74
  %3 = load ptr, ptr %2, align 8
  %4 = getelementptr inbounds nuw %"class.icu_77::UnicodeString", ptr %3, i32 0, i32 1
  %5 = getelementptr inbounds nuw %struct.anon.0, ptr %4, i32 0, i32 0
  %6 = load i16, ptr %5, align 8, !tbaa !22
  %7 = sext i16 %6 to i32
  %8 = and i32 %7, 2
  %9 = icmp ne i32 %8, 0
  br i1 %9, label %10, label %14

10:                                               ; preds = %1
  %11 = getelementptr inbounds nuw %"class.icu_77::UnicodeString", ptr %3, i32 0, i32 1
  %12 = getelementptr inbounds nuw %struct.anon, ptr %11, i32 0, i32 1
  %13 = getelementptr inbounds [27 x i16], ptr %12, i64 0, i64 0
  br label %18

14:                                               ; preds = %1
  %15 = getelementptr inbounds nuw %"class.icu_77::UnicodeString", ptr %3, i32 0, i32 1
  %16 = getelementptr inbounds nuw %struct.anon.0, ptr %15, i32 0, i32 3
  %17 = load ptr, ptr %16, align 8, !tbaa !22
  br label %18

18:                                               ; preds = %14, %10
  %19 = phi ptr [ %13, %10 ], [ %17, %14 ]
  ret ptr %19
}

; Function Attrs: inlinehint mustprogress nounwind uwtable
define linkonce_odr dso_local noundef i32 @_ZNK6icu_7713UnicodeString14getShortLengthEv(ptr noundef nonnull align 8 dereferenceable(64) %0) #9 comdat align 2 {
  %2 = alloca ptr, align 8
  store ptr %0, ptr %2, align 8, !tbaa !74
  %3 = load ptr, ptr %2, align 8
  %4 = getelementptr inbounds nuw %"class.icu_77::UnicodeString", ptr %3, i32 0, i32 1
  %5 = getelementptr inbounds nuw %struct.anon.0, ptr %4, i32 0, i32 0
  %6 = load i16, ptr %5, align 8, !tbaa !22
  %7 = sext i16 %6 to i32
  %8 = ashr i32 %7, 5
  ret i32 %8
}

; Function Attrs: inlinehint mustprogress nounwind uwtable
define linkonce_odr dso_local noundef signext i8 @_ZNK6icu_7713UnicodeString14hasShortLengthEv(ptr noundef nonnull align 8 dereferenceable(64) %0) #9 comdat align 2 {
  %2 = alloca ptr, align 8
  store ptr %0, ptr %2, align 8, !tbaa !74
  %3 = load ptr, ptr %2, align 8
  %4 = getelementptr inbounds nuw %"class.icu_77::UnicodeString", ptr %3, i32 0, i32 1
  %5 = getelementptr inbounds nuw %struct.anon.0, ptr %4, i32 0, i32 0
  %6 = load i16, ptr %5, align 8, !tbaa !22
  %7 = sext i16 %6 to i32
  %8 = icmp sge i32 %7, 0
  %9 = zext i1 %8 to i8
  ret i8 %9
}

; Function Attrs: inlinehint mustprogress uwtable
define linkonce_odr dso_local noundef zeroext i16 @_ZNK6icu_7713UnicodeString8doCharAtEi(ptr noundef nonnull align 8 dereferenceable(64) %0, i32 noundef %1) #11 comdat align 2 {
  %3 = alloca i16, align 2
  %4 = alloca ptr, align 8
  %5 = alloca i32, align 4
  store ptr %0, ptr %4, align 8, !tbaa !74
  store i32 %1, ptr %5, align 4, !tbaa !23
  %6 = load ptr, ptr %4, align 8
  %7 = load i32, ptr %5, align 4, !tbaa !23
  %8 = call noundef i32 @_ZNK6icu_7713UnicodeString6lengthEv(ptr noundef nonnull align 8 dereferenceable(64) %6)
  %9 = icmp ult i32 %7, %8
  br i1 %9, label %10, label %16

10:                                               ; preds = %2
  %11 = call noundef ptr @_ZNK6icu_7713UnicodeString13getArrayStartEv(ptr noundef nonnull align 8 dereferenceable(64) %6)
  %12 = load i32, ptr %5, align 4, !tbaa !23
  %13 = sext i32 %12 to i64
  %14 = getelementptr inbounds i16, ptr %11, i64 %13
  %15 = load i16, ptr %14, align 2, !tbaa !113
  store i16 %15, ptr %3, align 2
  br label %17

16:                                               ; preds = %2
  store i16 -1, ptr %3, align 2
  br label %17

17:                                               ; preds = %16, %10
  %18 = load i16, ptr %3, align 2
  ret i16 %18
}

; Function Attrs: inlinehint mustprogress uwtable
define linkonce_odr dso_local noundef i32 @_ZNK6icu_7713UnicodeString6lengthEv(ptr noundef nonnull align 8 dereferenceable(64) %0) #11 comdat align 2 {
  %2 = alloca ptr, align 8
  store ptr %0, ptr %2, align 8, !tbaa !74
  %3 = load ptr, ptr %2, align 8
  %4 = call noundef signext i8 @_ZNK6icu_7713UnicodeString14hasShortLengthEv(ptr noundef nonnull align 8 dereferenceable(64) %3)
  %5 = icmp ne i8 %4, 0
  br i1 %5, label %6, label %8

6:                                                ; preds = %1
  %7 = call noundef i32 @_ZNK6icu_7713UnicodeString14getShortLengthEv(ptr noundef nonnull align 8 dereferenceable(64) %3)
  br label %12

8:                                                ; preds = %1
  %9 = getelementptr inbounds nuw %"class.icu_77::UnicodeString", ptr %3, i32 0, i32 1
  %10 = getelementptr inbounds nuw %struct.anon.0, ptr %9, i32 0, i32 1
  %11 = load i32, ptr %10, align 4, !tbaa !22
  br label %12

12:                                               ; preds = %8, %6
  %13 = phi i32 [ %7, %6 ], [ %11, %8 ]
  ret i32 %13
}

; Function Attrs: inlinehint mustprogress uwtable
define linkonce_odr dso_local noundef i32 @_ZNK6icu_7713UnicodeString7indexOfEDs(ptr noundef nonnull align 8 dereferenceable(64) %0, i16 noundef zeroext %1) #11 comdat align 2 {
  %3 = alloca ptr, align 8
  %4 = alloca i16, align 2
  store ptr %0, ptr %3, align 8, !tbaa !74
  store i16 %1, ptr %4, align 2, !tbaa !113
  %5 = load ptr, ptr %3, align 8
  %6 = load i16, ptr %4, align 2, !tbaa !113
  %7 = call noundef i32 @_ZNK6icu_7713UnicodeString6lengthEv(ptr noundef nonnull align 8 dereferenceable(64) %5)
  %8 = call noundef i32 @_ZNK6icu_7713UnicodeString9doIndexOfEDsii(ptr noundef nonnull align 8 dereferenceable(64) %5, i16 noundef zeroext %6, i32 noundef 0, i32 noundef %7)
  ret i32 %8
}

; Function Attrs: inlinehint mustprogress uwtable
define linkonce_odr dso_local noundef zeroext i16 @_ZNK6icu_7713UnicodeStringixEi(ptr noundef nonnull align 8 dereferenceable(64) %0, i32 noundef %1) #11 comdat align 2 {
  %3 = alloca ptr, align 8
  %4 = alloca i32, align 4
  store ptr %0, ptr %3, align 8, !tbaa !74
  store i32 %1, ptr %4, align 4, !tbaa !23
  %5 = load ptr, ptr %3, align 8
  %6 = load i32, ptr %4, align 4, !tbaa !23
  %7 = call noundef zeroext i16 @_ZNK6icu_7713UnicodeString8doCharAtEi(ptr noundef nonnull align 8 dereferenceable(64) %5, i32 noundef %6)
  ret i16 %7
}

; Function Attrs: mustprogress uwtable
define linkonce_odr dso_local noundef i32 @_ZNK18StringBaseResource6lengthEv(ptr noundef nonnull align 8 dereferenceable(120) %0) #5 comdat align 2 {
  %2 = alloca ptr, align 8
  store ptr %0, ptr %2, align 8, !tbaa !71
  %3 = load ptr, ptr %2, align 8
  %4 = getelementptr inbounds nuw %class.StringBaseResource, ptr %3, i32 0, i32 1
  %5 = call noundef i32 @_ZNK6icu_7713UnicodeString6lengthEv(ptr noundef nonnull align 8 dereferenceable(64) %4)
  ret i32 %5
}

; Function Attrs: mustprogress uwtable
define dso_local void @_ZN14StringResource22handlePreflightStringsEP7SRBRootP10UHashtableR10UErrorCode(ptr noundef nonnull align 8 dereferenceable(141) %0, ptr noundef %1, ptr noundef %2, ptr noundef nonnull align 4 dereferenceable(4) %3) unnamed_addr #5 align 2 {
  %5 = alloca ptr, align 8
  %6 = alloca ptr, align 8
  %7 = alloca ptr, align 8
  %8 = alloca ptr, align 8
  %9 = alloca i32, align 4
  %10 = alloca i32, align 4
  store ptr %0, ptr %5, align 8, !tbaa !81
  store ptr %1, ptr %6, align 8, !tbaa !39
  store ptr %2, ptr %7, align 8, !tbaa !103
  store ptr %3, ptr %8, align 8, !tbaa !44
  %11 = load ptr, ptr %5, align 8
  %12 = load ptr, ptr %7, align 8, !tbaa !103
  %13 = call ptr @uhash_get_77(ptr noundef %12, ptr noundef %11)
  %14 = getelementptr inbounds nuw %class.StringResource, ptr %11, i32 0, i32 1
  store ptr %13, ptr %14, align 8, !tbaa !105
  %15 = getelementptr inbounds nuw %class.StringResource, ptr %11, i32 0, i32 1
  %16 = load ptr, ptr %15, align 8, !tbaa !105
  %17 = icmp ne ptr %16, null
  br i1 %17, label %18, label %43

18:                                               ; preds = %4
  %19 = getelementptr inbounds nuw %class.StringResource, ptr %11, i32 0, i32 1
  %20 = load ptr, ptr %19, align 8, !tbaa !105
  %21 = getelementptr inbounds nuw %class.StringResource, ptr %20, i32 0, i32 3
  %22 = load i32, ptr %21, align 4, !tbaa !108
  %23 = add nsw i32 %22, 1
  store i32 %23, ptr %21, align 4, !tbaa !108
  %24 = icmp eq i32 %23, 1
  br i1 %24, label %25, label %42

25:                                               ; preds = %18
  call void @llvm.lifetime.start.p0(i64 4, ptr %9) #3
  %26 = getelementptr inbounds nuw %class.StringResource, ptr %11, i32 0, i32 1
  %27 = load ptr, ptr %26, align 8, !tbaa !105
  %28 = getelementptr inbounds nuw %struct.SResource, ptr %27, i32 0, i32 3
  %29 = load i32, ptr %28, align 4, !tbaa !33
  %30 = and i32 %29, 268435455
  store i32 %30, ptr %9, align 4, !tbaa !23
  %31 = load i32, ptr %9, align 4, !tbaa !23
  %32 = load ptr, ptr %6, align 8, !tbaa !39
  %33 = getelementptr inbounds nuw %struct.SRBRoot, ptr %32, i32 0, i32 17
  %34 = load i32, ptr %33, align 8, !tbaa !109
  %35 = icmp sge i32 %31, %34
  br i1 %35, label %36, label %41

36:                                               ; preds = %25
  %37 = load i32, ptr %9, align 4, !tbaa !23
  %38 = add nsw i32 %37, 1
  %39 = load ptr, ptr %6, align 8, !tbaa !39
  %40 = getelementptr inbounds nuw %struct.SRBRoot, ptr %39, i32 0, i32 17
  store i32 %38, ptr %40, align 8, !tbaa !109
  br label %41

41:                                               ; preds = %36, %25
  call void @llvm.lifetime.end.p0(i64 4, ptr %9) #3
  br label %42

42:                                               ; preds = %41, %18
  br label %94

43:                                               ; preds = %4
  %44 = getelementptr inbounds nuw %class.StringResource, ptr %11, i32 0, i32 3
  store i32 1, ptr %44, align 4, !tbaa !108
  %45 = load ptr, ptr %7, align 8, !tbaa !103
  %46 = load ptr, ptr %8, align 8, !tbaa !44
  %47 = call ptr @uhash_put_77(ptr noundef %45, ptr noundef %11, ptr noundef %11, ptr noundef %46)
  %48 = load ptr, ptr %6, align 8, !tbaa !39
  %49 = getelementptr inbounds nuw %struct.SRBRoot, ptr %48, i32 0, i32 5
  %50 = load i8, ptr %49, align 1, !tbaa !110
  %51 = sext i8 %50 to i32
  %52 = icmp ne i32 %51, 0
  br i1 %52, label %53, label %94

53:                                               ; preds = %43
  call void @llvm.lifetime.start.p0(i64 4, ptr %10) #3
  %54 = call noundef i32 @_ZNK18StringBaseResource6lengthEv(ptr noundef nonnull align 8 dereferenceable(120) %11)
  store i32 %54, ptr %10, align 4, !tbaa !23
  %55 = load i32, ptr %10, align 4, !tbaa !23
  %56 = icmp sle i32 %55, 40
  br i1 %56, label %57, label %69

57:                                               ; preds = %53
  %58 = getelementptr inbounds nuw %class.StringBaseResource, ptr %11, i32 0, i32 1
  %59 = call noundef zeroext i16 @_ZNK6icu_7713UnicodeStringixEi(ptr noundef nonnull align 8 dereferenceable(64) %58, i32 noundef 0)
  %60 = zext i16 %59 to i32
  %61 = and i32 %60, -1024
  %62 = icmp eq i32 %61, 56320
  br i1 %62, label %69, label %63

63:                                               ; preds = %57
  %64 = getelementptr inbounds nuw %class.StringBaseResource, ptr %11, i32 0, i32 1
  %65 = call noundef i32 @_ZNK6icu_7713UnicodeString7indexOfEDs(ptr noundef nonnull align 8 dereferenceable(64) %64, i16 noundef zeroext 0)
  %66 = icmp slt i32 %65, 0
  br i1 %66, label %67, label %69

67:                                               ; preds = %63
  %68 = getelementptr inbounds nuw %class.StringResource, ptr %11, i32 0, i32 5
  store i8 0, ptr %68, align 4, !tbaa !111
  br label %83

69:                                               ; preds = %63, %57, %53
  %70 = load i32, ptr %10, align 4, !tbaa !23
  %71 = icmp sle i32 %70, 1006
  br i1 %71, label %72, label %74

72:                                               ; preds = %69
  %73 = getelementptr inbounds nuw %class.StringResource, ptr %11, i32 0, i32 5
  store i8 1, ptr %73, align 4, !tbaa !111
  br label %82

74:                                               ; preds = %69
  %75 = load i32, ptr %10, align 4, !tbaa !23
  %76 = icmp sle i32 %75, 1048575
  br i1 %76, label %77, label %79

77:                                               ; preds = %74
  %78 = getelementptr inbounds nuw %class.StringResource, ptr %11, i32 0, i32 5
  store i8 2, ptr %78, align 4, !tbaa !111
  br label %81

79:                                               ; preds = %74
  %80 = getelementptr inbounds nuw %class.StringResource, ptr %11, i32 0, i32 5
  store i8 3, ptr %80, align 4, !tbaa !111
  br label %81

81:                                               ; preds = %79, %77
  br label %82

82:                                               ; preds = %81, %72
  br label %83

83:                                               ; preds = %82, %67
  %84 = getelementptr inbounds nuw %class.StringResource, ptr %11, i32 0, i32 5
  %85 = load i8, ptr %84, align 4, !tbaa !111
  %86 = sext i8 %85 to i32
  %87 = load i32, ptr %10, align 4, !tbaa !23
  %88 = add nsw i32 %86, %87
  %89 = add nsw i32 %88, 1
  %90 = load ptr, ptr %6, align 8, !tbaa !39
  %91 = getelementptr inbounds nuw %struct.SRBRoot, ptr %90, i32 0, i32 15
  %92 = load i32, ptr %91, align 8, !tbaa !112
  %93 = add nsw i32 %92, %89
  store i32 %93, ptr %91, align 8, !tbaa !112
  call void @llvm.lifetime.end.p0(i64 4, ptr %10) #3
  br label %94

94:                                               ; preds = %42, %83, %43
  ret void
}