; Function Attrs: mustprogress uwtable
define dso_local void @_ZN14StringResource22handlePreflightStringsEP7SRBRootP10UHashtableR10UErrorCode(ptr noundef nonnull align 8 dereferenceable(141) %0, ptr noundef captures(none) %1, ptr noundef %2, ptr noundef nonnull align 4 dereferenceable(4) %3) unnamed_addr #7 align 2 {
  %5 = tail call ptr @uhash_get_77(ptr noundef %2, ptr noundef nonnull %0)
  %6 = getelementptr inbounds nuw i8, ptr %0, i64 120
  store ptr %5, ptr %6, align 8, !tbaa !63
  %.not = icmp eq ptr %5, null
  br i1 %.not, label %20, label %7

7:                                                ; preds = %4
  %8 = getelementptr inbounds nuw i8, ptr %5, i64 132
  %9 = load i32, ptr %8, align 4, !tbaa !67
  %10 = add nsw i32 %9, 1
  store i32 %10, ptr %8, align 4, !tbaa !67
  %11 = icmp eq i32 %9, 0
  br i1 %11, label %12, label %64

12:                                               ; preds = %7
  %13 = getelementptr inbounds nuw i8, ptr %5, i64 12
  %14 = load i32, ptr %13, align 4, !tbaa !20
  %15 = and i32 %14, 268435455
  %16 = getelementptr inbounds nuw i8, ptr %1, i64 152
  %17 = load i32, ptr %16, align 8, !tbaa !68
  %.not16 = icmp slt i32 %15, %17
  br i1 %.not16, label %64, label %18

18:                                               ; preds = %12
  %19 = add nuw nsw i32 %15, 1
  store i32 %19, ptr %16, align 8, !tbaa !68
  br label %64

20:                                               ; preds = %4
  %21 = getelementptr inbounds nuw i8, ptr %0, i64 132
  store i32 1, ptr %21, align 4, !tbaa !67
  %22 = tail call ptr @uhash_put_77(ptr noundef %2, ptr noundef nonnull %0, ptr noundef nonnull %0, ptr noundef nonnull %3)
  %23 = getelementptr inbounds nuw i8, ptr %1, i64 25
  %24 = load i8, ptr %23, align 1, !tbaa !69
  %.not15 = icmp eq i8 %24, 0
  br i1 %.not15, label %64, label %25

25:                                               ; preds = %20
  %26 = getelementptr inbounds nuw i8, ptr %0, i64 64
  %27 = load i16, ptr %26, align 8, !tbaa !4
  %28 = icmp slt i16 %27, 0
  %29 = ashr i16 %27, 5
  %30 = sext i16 %29 to i32
  %31 = getelementptr inbounds nuw i8, ptr %0, i64 68
  %32 = load i32, ptr %31, align 4
  %33 = select i1 %28, i32 %32, i32 %30
  %34 = icmp slt i32 %33, 41
  br i1 %34, label %35, label %49

35:                                               ; preds = %25
  %36 = getelementptr inbounds nuw i8, ptr %0, i64 56
  %.not18 = icmp eq i32 %33, 0
  br i1 %.not18, label %_ZNK6icu_7713UnicodeStringixEi.exit.thread, label %_ZNK6icu_7713UnicodeStringixEi.exit

_ZNK6icu_7713UnicodeStringixEi.exit:              ; preds = %35
  %37 = and i16 %27, 2
  %.not.i.i.i = icmp eq i16 %37, 0
  %38 = getelementptr inbounds nuw i8, ptr %0, i64 66
  %39 = getelementptr inbounds nuw i8, ptr %0, i64 80
  %40 = load ptr, ptr %39, align 8
  %41 = select i1 %.not.i.i.i, ptr %40, ptr %38
  %42 = load i16, ptr %41, align 2, !tbaa !70
  %43 = and i16 %42, -1024
  %44 = icmp eq i16 %43, -9216
  br i1 %44, label %.thread, label %_ZNK6icu_7713UnicodeStringixEi.exit.thread

_ZNK6icu_7713UnicodeStringixEi.exit.thread:       ; preds = %35, %_ZNK6icu_7713UnicodeStringixEi.exit
  %45 = tail call noundef i32 @_ZNK6icu_7713UnicodeString9doIndexOfEDsii(ptr noundef nonnull align 8 dereferenceable(64) %36, i16 noundef zeroext 0, i32 noundef 0, i32 noundef %33)
  %46 = icmp slt i32 %45, 0
  br i1 %46, label %47, label %.thread

47:                                               ; preds = %_ZNK6icu_7713UnicodeStringixEi.exit.thread
  %48 = getelementptr inbounds nuw i8, ptr %0, i64 140
  store i8 0, ptr %48, align 4, !tbaa !72
  br label %57

49:                                               ; preds = %25
  %50 = icmp samesign ult i32 %33, 1007
  br i1 %50, label %.thread, label %52

.thread:                                          ; preds = %_ZNK6icu_7713UnicodeStringixEi.exit, %_ZNK6icu_7713UnicodeStringixEi.exit.thread, %49
  %51 = getelementptr inbounds nuw i8, ptr %0, i64 140
  store i8 1, ptr %51, align 4, !tbaa !72
  br label %57

52:                                               ; preds = %49
  %53 = icmp samesign ult i32 %33, 1048576
  %54 = getelementptr inbounds nuw i8, ptr %0, i64 140
  br i1 %53, label %55, label %56

55:                                               ; preds = %52
  store i8 2, ptr %54, align 4, !tbaa !72
  br label %57

56:                                               ; preds = %52
  store i8 3, ptr %54, align 4, !tbaa !72
  br label %57

57:                                               ; preds = %.thread, %56, %55, %47
  %58 = phi i32 [ 1, %.thread ], [ 3, %56 ], [ 2, %55 ], [ 0, %47 ]
  %59 = getelementptr inbounds nuw i8, ptr %1, i64 136
  %60 = load i32, ptr %59, align 8, !tbaa !73
  %61 = add i32 %33, 1
  %62 = add i32 %61, %58
  %63 = add nsw i32 %62, %60
  store i32 %63, ptr %59, align 8, !tbaa !73
  br label %64

64:                                               ; preds = %12, %18, %7, %57, %20
  ret void
}